target datalayout = "e-m:e-p270:32:32-p271:32:32-p272:64:64-i64:64-i128:128-f80:128-n8:16:32:64-S128"
target triple = "x86_64-pc-linux-gnu"

%struct.nameData = type { [64 x i8] }
%struct.RelationData = type { %struct.RelFileLocator, ptr, i32, i32, i8, i8, i8, i8, i8, i32, i32, i32, i32, ptr, ptr, i32, %struct.LockInfoData, ptr, ptr, ptr, ptr, ptr, i8, ptr, ptr, ptr, ptr, ptr, ptr, i32, ptr, i8, ptr, ptr, i32, i8, i32, ptr, i8, ptr, ptr, ptr, ptr, ptr, ptr, ptr, i32, ptr, ptr, ptr, ptr, ptr, ptr, ptr, ptr, ptr, ptr, ptr, ptr, ptr, ptr, ptr, ptr, ptr, ptr, ptr, i32, i8, ptr }
%struct.RelFileLocator = type { i32, i32, i32 }
%struct.LockInfoData = type { %struct.LockRelId }
%struct.LockRelId = type { i32, i32 }
%struct.ScanKeyData = type { i32, i16, i16, i32, i32, %struct.FmgrInfo, i64 }
%struct.FmgrInfo = type { ptr, i32, i16, i8, i8, i8, ptr, ptr, ptr }
%struct.FormData_pg_constraint = type { i32, %struct.nameData, i32, i8, i8, i8, i8, i8, i32, i32, i32, i32, i32, i8, i8, i8, i8, i16, i8, i8 }
%struct.HeapTupleData = type { i32, %struct.ItemPointerData, i32, ptr }
%struct.ItemPointerData = type { %struct.BlockIdData, i16 }
%struct.BlockIdData = type { i16, i16 }
%struct.HeapTupleHeaderData = type { %union.anon, %struct.ItemPointerData, i16, i16, i8, [0 x i8] }
%union.anon = type { %struct.HeapTupleFields }
%struct.HeapTupleFields = type { i32, i32, %union.anon.0 }
%union.anon.0 = type { i32 }
%struct.ArrayType = type { i32, i32, i32, i32 }

@.str.1 = private unnamed_addr constant [35 x i8] c"conkey is not a 1-D smallint array\00", align 1
@.str.2 = private unnamed_addr constant [16 x i8] c"pg_constraint.c\00", align 1
@.str.14 = private unnamed_addr constant [30 x i8] c"null conkey for constraint %u\00", align 1
@__func__.get_primary_key_attnos = private unnamed_addr constant [23 x i8] c"get_primary_key_attnos\00", align 1

; Function Attrs: inlinehint nounwind uwtable
define internal ptr @DatumGetPointer(i64 noundef %0) #3 {
  %2 = alloca i64, align 8
  store i64 %0, ptr %2, align 8
  %3 = load i64, ptr %2, align 8
  %4 = inttoptr i64 %3 to ptr
  ret ptr %4
}

; Function Attrs: inlinehint nounwind uwtable
define internal ptr @GETSTRUCT(ptr noundef %0) #3 {
  %2 = alloca ptr, align 8
  store ptr %0, ptr %2, align 8
  %3 = load ptr, ptr %2, align 8
  %4 = getelementptr inbounds nuw %struct.HeapTupleData, ptr %3, i32 0, i32 3
  %5 = load ptr, ptr %4, align 8
  %6 = load ptr, ptr %2, align 8
  %7 = getelementptr inbounds nuw %struct.HeapTupleData, ptr %6, i32 0, i32 3
  %8 = load ptr, ptr %7, align 8
  %9 = getelementptr inbounds nuw %struct.HeapTupleHeaderData, ptr %8, i32 0, i32 4
  %10 = load i8, ptr %9, align 2
  %11 = zext i8 %10 to i32
  %12 = sext i32 %11 to i64
  %13 = getelementptr inbounds i8, ptr %5, i64 %12
  ret ptr %13
}

; Function Attrs: inlinehint nounwind uwtable
define internal i64 @ObjectIdGetDatum(i32 noundef %0) #3 {
  %2 = alloca i32, align 4
  store i32 %0, ptr %2, align 4
  %3 = load i32, ptr %2, align 4
  %4 = zext i32 %3 to i64
  ret i64 %4
}

; Function Attrs: nounwind uwtable
define dso_local ptr @get_primary_key_attnos(i32 noundef %0, i1 noundef zeroext %1, ptr noundef %2) #0 {
  %4 = alloca i32, align 4
  %5 = alloca i8, align 1
  %6 = alloca ptr, align 8
  %7 = alloca ptr, align 8
  %8 = alloca ptr, align 8
  %9 = alloca ptr, align 8
  %10 = alloca ptr, align 8
  %11 = alloca [1 x %struct.ScanKeyData], align 16
  %12 = alloca ptr, align 8
  %13 = alloca i64, align 8
  %14 = alloca i8, align 1
  %15 = alloca ptr, align 8
  %16 = alloca ptr, align 8
  %17 = alloca i32, align 4
  %18 = alloca i32, align 4
  %19 = alloca i32, align 4
  store i32 %0, ptr %4, align 4
  %20 = zext i1 %1 to i8
  store i8 %20, ptr %5, align 1
  store ptr %2, ptr %6, align 8
  call void @llvm.lifetime.start.p0(i64 8, ptr %7) #9
  store ptr null, ptr %7, align 8
  call void @llvm.lifetime.start.p0(i64 8, ptr %8) #9
  call void @llvm.lifetime.start.p0(i64 8, ptr %9) #9
  call void @llvm.lifetime.start.p0(i64 8, ptr %10) #9
  call void @llvm.lifetime.start.p0(i64 72, ptr %11) #9
  %21 = load ptr, ptr %6, align 8
  store i32 0, ptr %21, align 4
  %22 = call ptr @table_open(i32 noundef 2606, i32 noundef 1)
  store ptr %22, ptr %8, align 8
  %23 = getelementptr inbounds [1 x %struct.ScanKeyData], ptr %11, i64 0, i64 0
  %24 = load i32, ptr %4, align 4
  %25 = call i64 @ObjectIdGetDatum(i32 noundef %24)
  call void @ScanKeyInit(ptr noundef %23, i16 noundef signext 9, i16 noundef zeroext 3, i32 noundef 184, i64 noundef %25)
  %26 = load ptr, ptr %8, align 8
  %27 = getelementptr inbounds [1 x %struct.ScanKeyData], ptr %11, i64 0, i64 0
  %28 = call ptr @systable_beginscan(ptr noundef %26, i32 noundef 2665, i1 noundef zeroext true, ptr noundef null, i32 noundef 1, ptr noundef %27)
  store ptr %28, ptr %10, align 8
  br label %29

29:                                               ; preds = %156, %3
  %30 = load ptr, ptr %10, align 8
  %31 = call ptr @systable_getnext(ptr noundef %30)
  store ptr %31, ptr %9, align 8
  %32 = icmp ne ptr %31, null
  br i1 %32, label %33, label %158

33:                                               ; preds = %29
  call void @llvm.lifetime.start.p0(i64 8, ptr %12) #9
  %34 = load ptr, ptr %9, align 8
  %35 = call ptr @GETSTRUCT(ptr noundef %34)
  store ptr %35, ptr %12, align 8
  call void @llvm.lifetime.start.p0(i64 8, ptr %13) #9
  call void @llvm.lifetime.start.p0(i64 1, ptr %14) #9
  call void @llvm.lifetime.start.p0(i64 8, ptr %15) #9
  call void @llvm.lifetime.start.p0(i64 8, ptr %16) #9
  call void @llvm.lifetime.start.p0(i64 4, ptr %17) #9
  call void @llvm.lifetime.start.p0(i64 4, ptr %18) #9
  %36 = load ptr, ptr %12, align 8
  %37 = getelementptr inbounds nuw %struct.FormData_pg_constraint, ptr %36, i32 0, i32 3
  %38 = load i8, ptr %37, align 4
  %39 = sext i8 %38 to i32
  %40 = icmp ne i32 %39, 112
  br i1 %40, label %41, label %42

41:                                               ; preds = %33
  store i32 2, ptr %19, align 4
  br label %156, !llvm.loop !25

42:                                               ; preds = %33
  %43 = load ptr, ptr %12, align 8
  %44 = getelementptr inbounds nuw %struct.FormData_pg_constraint, ptr %43, i32 0, i32 4
  %45 = load i8, ptr %44, align 1, !range !13, !noundef !14
  %46 = trunc i8 %45 to i1
  br i1 %46, label %47, label %51

47:                                               ; preds = %42
  %48 = load i8, ptr %5, align 1, !range !13, !noundef !14
  %49 = trunc i8 %48 to i1
  br i1 %49, label %51, label %50

50:                                               ; preds = %47
  store i32 3, ptr %19, align 4
  br label %156

51:                                               ; preds = %47, %42
  %52 = load ptr, ptr %9, align 8
  %53 = load ptr, ptr %8, align 8
  %54 = getelementptr inbounds nuw %struct.RelationData, ptr %53, i32 0, i32 14
  %55 = load ptr, ptr %54, align 8
  %56 = call i64 @heap_getattr(ptr noundef %52, i32 noundef 21, ptr noundef %55, ptr noundef %14)
  store i64 %56, ptr %13, align 8
  %57 = load i8, ptr %14, align 1, !range !13, !noundef !14
  %58 = trunc i8 %57 to i1
  br i1 %58, label %59, label %74

59:                                               ; preds = %51
  br label %60

60:                                               ; preds = %59
  br i1 true, label %61, label %63

61:                                               ; preds = %60
  %62 = call zeroext i1 @errstart_cold(i32 noundef 21, ptr noundef null) #11
  br i1 %62, label %65, label %71

63:                                               ; preds = %60
  %64 = call zeroext i1 @errstart(i32 noundef 21, ptr noundef null)
  br i1 %64, label %65, label %71

65:                                               ; preds = %63, %61
  %66 = load ptr, ptr %9, align 8
  %67 = call ptr @GETSTRUCT(ptr noundef %66)
  %68 = getelementptr inbounds nuw %struct.FormData_pg_constraint, ptr %67, i32 0, i32 0
  %69 = load i32, ptr %68, align 4
  %70 = call i32 (ptr, ...) @errmsg_internal(ptr noundef @.str.14, i32 noundef %69)
  call void @errfinish(ptr noundef @.str.2, i32 noundef 1458, ptr noundef @__func__.get_primary_key_attnos)
  br label %71

71:                                               ; preds = %65, %63, %61
  unreachable

72:                                               ; No predecessors!
  br label %73

73:                                               ; preds = %72
  br label %74

74:                                               ; preds = %73, %51
  %75 = load i64, ptr %13, align 8
  %76 = call ptr @DatumGetPointer(i64 noundef %75)
  %77 = call ptr @pg_detoast_datum(ptr noundef %76)
  store ptr %77, ptr %15, align 8
  %78 = load ptr, ptr %15, align 8
  %79 = getelementptr inbounds nuw i8, ptr %78, i64 16
  %80 = getelementptr inbounds i32, ptr %79, i64 0
  %81 = load i32, ptr %80, align 4
  store i32 %81, ptr %17, align 4
  %82 = load ptr, ptr %15, align 8
  %83 = getelementptr inbounds nuw %struct.ArrayType, ptr %82, i32 0, i32 1
  %84 = load i32, ptr %83, align 4
  %85 = icmp ne i32 %84, 1
  br i1 %85, label %99, label %86

86:                                               ; preds = %74
  %87 = load i32, ptr %17, align 4
  %88 = icmp slt i32 %87, 0
  br i1 %88, label %99, label %89

89:                                               ; preds = %86
  %90 = load ptr, ptr %15, align 8
  %91 = getelementptr inbounds nuw %struct.ArrayType, ptr %90, i32 0, i32 2
  %92 = load i32, ptr %91, align 4
  %93 = icmp ne i32 %92, 0
  br i1 %93, label %99, label %94

94:                                               ; preds = %89
  %95 = load ptr, ptr %15, align 8
  %96 = getelementptr inbounds nuw %struct.ArrayType, ptr %95, i32 0, i32 3
  %97 = load i32, ptr %96, align 4
  %98 = icmp ne i32 %97, 21
  br i1 %98, label %99, label %110

99:                                               ; preds = %94, %89, %86, %74
  br label %100

100:                                              ; preds = %99
  br i1 true, label %101, label %103

101:                                              ; preds = %100
  %102 = call zeroext i1 @errstart_cold(i32 noundef 21, ptr noundef null) #11
  br i1 %102, label %105, label %107

103:                                              ; preds = %100
  %104 = call zeroext i1 @errstart(i32 noundef 21, ptr noundef null)
  br i1 %104, label %105, label %107

105:                                              ; preds = %103, %101
  %106 = call i32 (ptr, ...) @errmsg_internal(ptr noundef @.str.1)
  call void @errfinish(ptr noundef @.str.2, i32 noundef 1465, ptr noundef @__func__.get_primary_key_attnos)
  br label %107

107:                                              ; preds = %105, %103, %101
  unreachable

108:                                              ; No predecessors!
  br label %109

109:                                              ; preds = %108
  br label %110

110:                                              ; preds = %109, %94
  %111 = load ptr, ptr %15, align 8
  %112 = load ptr, ptr %15, align 8
  %113 = getelementptr inbounds nuw %struct.ArrayType, ptr %112, i32 0, i32 2
  %114 = load i32, ptr %113, align 4
  %115 = icmp ne i32 %114, 0
  br i1 %115, label %116, label %121

116:                                              ; preds = %110
  %117 = load ptr, ptr %15, align 8
  %118 = getelementptr inbounds nuw %struct.ArrayType, ptr %117, i32 0, i32 2
  %119 = load i32, ptr %118, align 4
  %120 = sext i32 %119 to i64
  br label %130

121:                                              ; preds = %110
  %122 = load ptr, ptr %15, align 8
  %123 = getelementptr inbounds nuw %struct.ArrayType, ptr %122, i32 0, i32 1
  %124 = load i32, ptr %123, align 4
  %125 = sext i32 %124 to i64
  %126 = mul i64 8, %125
  %127 = add i64 16, %126
  %128 = add i64 %127, 7
  %129 = and i64 %128, -8
  br label %130

130:                                              ; preds = %121, %116
  %131 = phi i64 [ %120, %116 ], [ %129, %121 ]
  %132 = getelementptr inbounds nuw i8, ptr %111, i64 %131
  store ptr %132, ptr %16, align 8
  store i32 0, ptr %18, align 4
  br label %133

133:                                              ; preds = %147, %130
  %134 = load i32, ptr %18, align 4
  %135 = load i32, ptr %17, align 4
  %136 = icmp slt i32 %134, %135
  br i1 %136, label %137, label %150

137:                                              ; preds = %133
  %138 = load ptr, ptr %7, align 8
  %139 = load ptr, ptr %16, align 8
  %140 = load i32, ptr %18, align 4
  %141 = sext i32 %140 to i64
  %142 = getelementptr inbounds i16, ptr %139, i64 %141
  %143 = load i16, ptr %142, align 2
  %144 = sext i16 %143 to i32
  %145 = sub i32 %144, -7
  %146 = call ptr @bms_add_member(ptr noundef %138, i32 noundef %145)
  store ptr %146, ptr %7, align 8
  br label %147

147:                                              ; preds = %137
  %148 = load i32, ptr %18, align 4
  %149 = add i32 %148, 1
  store i32 %149, ptr %18, align 4
  br label %133, !llvm.loop !26

150:                                              ; preds = %133
  %151 = load ptr, ptr %9, align 8
  %152 = call ptr @GETSTRUCT(ptr noundef %151)
  %153 = getelementptr inbounds nuw %struct.FormData_pg_constraint, ptr %152, i32 0, i32 0
  %154 = load i32, ptr %153, align 4
  %155 = load ptr, ptr %6, align 8
  store i32 %154, ptr %155, align 4
  store i32 3, ptr %19, align 4
  br label %156

156:                                              ; preds = %150, %50, %41
  call void @llvm.lifetime.end.p0(i64 4, ptr %18) #9
  call void @llvm.lifetime.end.p0(i64 4, ptr %17) #9
  call void @llvm.lifetime.end.p0(i64 8, ptr %16) #9
  call void @llvm.lifetime.end.p0(i64 8, ptr %15) #9
  call void @llvm.lifetime.end.p0(i64 1, ptr %14) #9
  call void @llvm.lifetime.end.p0(i64 8, ptr %13) #9
  call void @llvm.lifetime.end.p0(i64 8, ptr %12) #9
  %157 = load i32, ptr %19, align 4
  switch i32 %157, label %162 [
    i32 2, label %29
    i32 3, label %158
  ]

158:                                              ; preds = %156, %29
  %159 = load ptr, ptr %10, align 8
  call void @systable_endscan(ptr noundef %159)
  %160 = load ptr, ptr %8, align 8
  call void @table_close(ptr noundef %160, i32 noundef 1)
  %161 = load ptr, ptr %7, align 8
  store i32 1, ptr %19, align 4
  call void @llvm.lifetime.end.p0(i64 72, ptr %11) #9
  call void @llvm.lifetime.end.p0(i64 8, ptr %10) #9
  call void @llvm.lifetime.end.p0(i64 8, ptr %9) #9
  call void @llvm.lifetime.end.p0(i64 8, ptr %8) #9
  call void @llvm.lifetime.end.p0(i64 8, ptr %7) #9
  ret ptr %161

162:                                              ; preds = %156
  unreachable
}