; Function Attrs: nounwind uwtable
define dso_local ptr @get_primary_key_attnos(i32 noundef %0, i1 noundef zeroext %1, ptr noundef writeonly captures(none) initializes((0, 4)) %2) local_unnamed_addr #0 {
  %4 = alloca [1 x %struct.ScanKeyData], align 16
  %5 = alloca i8, align 1
  call void @llvm.lifetime.start.p0(i64 72, ptr nonnull %4) #12
  store i32 0, ptr %2, align 4
  %6 = tail call ptr @table_open(i32 noundef 2606, i32 noundef 1) #12
  %7 = zext i32 %0 to i64
  call void @ScanKeyInit(ptr noundef nonnull %4, i16 noundef signext 9, i16 noundef zeroext 3, i32 noundef 184, i64 noundef %7) #12
  %8 = call ptr @systable_beginscan(ptr noundef %6, i32 noundef 2665, i1 noundef zeroext true, ptr noundef null, i32 noundef 1, ptr noundef nonnull %4) #12
  %9 = call ptr @systable_getnext(ptr noundef %8) #12
  %.not52 = icmp eq ptr %9, null
  br i1 %.not52, label %.loopexit, label %.lr.ph

.lr.ph:                                           ; preds = %3, %67
  %10 = phi ptr [ %68, %67 ], [ %9, %3 ]
  %11 = getelementptr i8, ptr %10, i64 16
  %.val44 = load ptr, ptr %11, align 8
  %12 = getelementptr inbounds nuw i8, ptr %.val44, i64 22
  %13 = load i8, ptr %12, align 2
  %14 = zext i8 %13 to i64
  %15 = getelementptr inbounds nuw i8, ptr %.val44, i64 %14
  call void @llvm.lifetime.start.p0(i64 1, ptr nonnull %5) #12
  %16 = getelementptr inbounds nuw i8, ptr %15, i64 72
  %17 = load i8, ptr %16, align 4
  %.not39 = icmp eq i8 %17, 112
  br i1 %.not39, label %18, label %67, !llvm.loop !23

18:                                               ; preds = %.lr.ph
  %19 = getelementptr i8, ptr %10, i64 16
  %20 = getelementptr inbounds nuw i8, ptr %15, i64 73
  %21 = load i8, ptr %20, align 1, !range !16, !noundef !17
  %22 = trunc nuw i8 %21 to i1
  %.not42 = xor i1 %22, true
  %brmerge = or i1 %1, %.not42
  br i1 %brmerge, label %23, label %.thread

23:                                               ; preds = %18
  %24 = getelementptr inbounds nuw i8, ptr %6, i64 64
  %25 = load ptr, ptr %24, align 8
  %26 = call fastcc i64 @heap_getattr(ptr noundef %10, ptr noundef %25, ptr noundef %5)
  %27 = load i8, ptr %5, align 1, !range !16, !noundef !17
  %28 = trunc nuw i8 %27 to i1
  br i1 %28, label %29, label %37

29:                                               ; preds = %23
  %30 = call zeroext i1 @errstart_cold(i32 noundef 21, ptr noundef null) #14
  call void @llvm.assume(i1 %30)
  %.val43 = load ptr, ptr %19, align 8
  %31 = getelementptr inbounds nuw i8, ptr %.val43, i64 22
  %32 = load i8, ptr %31, align 2
  %33 = zext i8 %32 to i64
  %34 = getelementptr inbounds nuw i8, ptr %.val43, i64 %33
  %35 = load i32, ptr %34, align 4
  %36 = call i32 (ptr, ...) @errmsg_internal(ptr noundef nonnull @.str.14, i32 noundef %35) #12
  call void @errfinish(ptr noundef nonnull @.str.2, i32 noundef 1458, ptr noundef nonnull @__func__.get_primary_key_attnos) #12
  unreachable

37:                                               ; preds = %23
  %38 = inttoptr i64 %26 to ptr
  %39 = call ptr @pg_detoast_datum(ptr noundef %38) #12
  %40 = getelementptr inbounds nuw i8, ptr %39, i64 16
  %41 = load i32, ptr %40, align 4
  %42 = getelementptr inbounds nuw i8, ptr %39, i64 4
  %43 = load i32, ptr %42, align 4
  %44 = icmp ne i32 %43, 1
  %45 = icmp slt i32 %41, 0
  %or.cond = select i1 %44, i1 true, i1 %45
  br i1 %or.cond, label %52, label %46

46:                                               ; preds = %37
  %47 = getelementptr inbounds nuw i8, ptr %39, i64 8
  %48 = load i32, ptr %47, align 4
  %.not40 = icmp eq i32 %48, 0
  br i1 %.not40, label %49, label %52

49:                                               ; preds = %46
  %50 = getelementptr inbounds nuw i8, ptr %39, i64 12
  %51 = load i32, ptr %50, align 4
  %.not41 = icmp eq i32 %51, 21
  br i1 %.not41, label %55, label %52

52:                                               ; preds = %49, %46, %37
  %53 = call zeroext i1 @errstart_cold(i32 noundef 21, ptr noundef null) #14
  call void @llvm.assume(i1 %53)
  %54 = call i32 (ptr, ...) @errmsg_internal(ptr noundef nonnull @.str.1) #12
  call void @errfinish(ptr noundef nonnull @.str.2, i32 noundef 1465, ptr noundef nonnull @__func__.get_primary_key_attnos) #12
  unreachable

55:                                               ; preds = %49
  %56 = getelementptr inbounds nuw i8, ptr %39, i64 24
  %.not68 = icmp eq i32 %41, 0
  br i1 %.not68, label %._crit_edge, label %.lr.ph55.preheader

.lr.ph55.preheader:                               ; preds = %55
  %wide.trip.count = zext nneg i32 %41 to i64
  br label %.lr.ph55

.lr.ph55:                                         ; preds = %.lr.ph55.preheader, %.lr.ph55
  %indvars.iv = phi i64 [ 0, %.lr.ph55.preheader ], [ %indvars.iv.next, %.lr.ph55 ]
  %.353 = phi ptr [ null, %.lr.ph55.preheader ], [ %61, %.lr.ph55 ]
  %57 = getelementptr inbounds nuw i16, ptr %56, i64 %indvars.iv
  %58 = load i16, ptr %57, align 2
  %59 = sext i16 %58 to i32
  %60 = add nsw i32 %59, 7
  %61 = call ptr @bms_add_member(ptr noundef %.353, i32 noundef %60) #12
  %indvars.iv.next = add nuw nsw i64 %indvars.iv, 1
  %exitcond.not = icmp eq i64 %indvars.iv.next, %wide.trip.count
  br i1 %exitcond.not, label %._crit_edge, label %.lr.ph55, !llvm.loop !24

._crit_edge:                                      ; preds = %.lr.ph55, %55
  %.3.lcssa = phi ptr [ null, %55 ], [ %61, %.lr.ph55 ]
  %.val = load ptr, ptr %19, align 8
  %62 = getelementptr inbounds nuw i8, ptr %.val, i64 22
  %63 = load i8, ptr %62, align 2
  %64 = zext i8 %63 to i64
  %65 = getelementptr inbounds nuw i8, ptr %.val, i64 %64
  %66 = load i32, ptr %65, align 4
  store i32 %66, ptr %2, align 4
  br label %.thread

.thread:                                          ; preds = %._crit_edge, %18
  %.2.ph = phi ptr [ null, %18 ], [ %.3.lcssa, %._crit_edge ]
  call void @llvm.lifetime.end.p0(i64 1, ptr nonnull %5) #12
  br label %.loopexit

67:                                               ; preds = %.lr.ph
  call void @llvm.lifetime.end.p0(i64 1, ptr nonnull %5) #12
  %68 = call ptr @systable_getnext(ptr noundef %8) #12
  %.not = icmp eq ptr %68, null
  br i1 %.not, label %.loopexit, label %.lr.ph

.loopexit:                                        ; preds = %67, %3, %.thread
  %.1 = phi ptr [ %.2.ph, %.thread ], [ null, %3 ], [ null, %67 ]
  call void @systable_endscan(ptr noundef %8) #12
  call void @table_close(ptr noundef %6, i32 noundef 1) #12
  call void @llvm.lifetime.end.p0(i64 72, ptr nonnull %4) #12
  ret ptr %.1
}